target datalayout = "e-m:e-p270:32:32-p271:32:32-p272:64:64-i64:64-i128:128-f80:128-n8:16:32:64-S128"
target triple = "x86_64-pc-linux-gnu"

%struct.bignum_st = type { ptr, i32, i32, i32, i32 }

; Function Attrs: nounwind uwtable
define hidden i32 @BN_nnmod(ptr noundef %0, ptr noundef %1, ptr noundef %2, ptr noundef %3) #0 {
  %5 = alloca i32, align 4
  %6 = alloca ptr, align 8
  %7 = alloca ptr, align 8
  %8 = alloca ptr, align 8
  %9 = alloca ptr, align 8
  store ptr %0, ptr %6, align 8, !tbaa !6
  store ptr %1, ptr %7, align 8, !tbaa !6
  store ptr %2, ptr %8, align 8, !tbaa !6
  store ptr %3, ptr %9, align 8, !tbaa !11
  %10 = load ptr, ptr %6, align 8, !tbaa !6
  %11 = load ptr, ptr %7, align 8, !tbaa !6
  %12 = load ptr, ptr %8, align 8, !tbaa !6
  %13 = load ptr, ptr %9, align 8, !tbaa !11
  %14 = call i32 @BN_div(ptr noundef null, ptr noundef %10, ptr noundef %11, ptr noundef %12, ptr noundef %13)
  %15 = icmp ne i32 %14, 0
  br i1 %15, label %17, label %16

16:                                               ; preds = %4
  store i32 0, ptr %5, align 4
  br label %33

17:                                               ; preds = %4
  %18 = load ptr, ptr %6, align 8, !tbaa !6
  %19 = getelementptr inbounds nuw %struct.bignum_st, ptr %18, i32 0, i32 3
  %20 = load i32, ptr %19, align 8, !tbaa !22
  %21 = icmp ne i32 %20, 0
  br i1 %21, label %23, label %22

22:                                               ; preds = %17
  store i32 1, ptr %5, align 4
  br label %33

23:                                               ; preds = %17
  %24 = load ptr, ptr %8, align 8, !tbaa !6
  %25 = getelementptr inbounds nuw %struct.bignum_st, ptr %24, i32 0, i32 3
  %26 = load i32, ptr %25, align 8, !tbaa !22
  %27 = icmp ne i32 %26, 0
  %28 = select i1 %27, ptr @BN_sub, ptr @BN_add
  %29 = load ptr, ptr %6, align 8, !tbaa !6
  %30 = load ptr, ptr %6, align 8, !tbaa !6
  %31 = load ptr, ptr %8, align 8, !tbaa !6
  %32 = call i32 %28(ptr noundef %29, ptr noundef %30, ptr noundef %31)
  store i32 %32, ptr %5, align 4
  br label %33

33:                                               ; preds = %23, %22, %16
  %34 = load i32, ptr %5, align 4
  ret i32 %34
}

; Function Attrs: nounwind uwtable
define hidden i32 @BN_mod_lshift(ptr noundef %0, ptr noundef %1, i32 noundef %2, ptr noundef %3, ptr noundef %4) #0 {
  %6 = alloca i32, align 4
  %7 = alloca ptr, align 8
  %8 = alloca ptr, align 8
  %9 = alloca i32, align 4
  %10 = alloca ptr, align 8
  %11 = alloca ptr, align 8
  %12 = alloca ptr, align 8
  %13 = alloca i32, align 4
  %14 = alloca i32, align 4
  store ptr %0, ptr %7, align 8, !tbaa !6
  store ptr %1, ptr %8, align 8, !tbaa !6
  store i32 %2, ptr %9, align 4, !tbaa !13
  store ptr %3, ptr %10, align 8, !tbaa !6
  store ptr %4, ptr %11, align 8, !tbaa !11
  call void @llvm.lifetime.start.p0(i64 8, ptr %12) #4
  store ptr null, ptr %12, align 8, !tbaa !6
  call void @llvm.lifetime.start.p0(i64 4, ptr %13) #4
  %15 = load ptr, ptr %7, align 8, !tbaa !6
  %16 = load ptr, ptr %8, align 8, !tbaa !6
  %17 = load ptr, ptr %10, align 8, !tbaa !6
  %18 = load ptr, ptr %11, align 8, !tbaa !11
  %19 = call i32 @BN_nnmod(ptr noundef %15, ptr noundef %16, ptr noundef %17, ptr noundef %18)
  %20 = icmp ne i32 %19, 0
  br i1 %20, label %22, label %21

21:                                               ; preds = %5
  store i32 0, ptr %6, align 4
  store i32 1, ptr %14, align 4
  br label %51

22:                                               ; preds = %5
  %23 = load ptr, ptr %10, align 8, !tbaa !6
  %24 = getelementptr inbounds nuw %struct.bignum_st, ptr %23, i32 0, i32 3
  %25 = load i32, ptr %24, align 8, !tbaa !22
  %26 = icmp ne i32 %25, 0
  br i1 %26, label %27, label %36

27:                                               ; preds = %22
  %28 = load ptr, ptr %10, align 8, !tbaa !6
  %29 = call ptr @BN_dup(ptr noundef %28)
  store ptr %29, ptr %12, align 8, !tbaa !6
  %30 = load ptr, ptr %12, align 8, !tbaa !6
  %31 = icmp eq ptr %30, null
  br i1 %31, label %32, label %33

32:                                               ; preds = %27
  store i32 0, ptr %6, align 4
  store i32 1, ptr %14, align 4
  br label %51

33:                                               ; preds = %27
  %34 = load ptr, ptr %12, align 8, !tbaa !6
  %35 = getelementptr inbounds nuw %struct.bignum_st, ptr %34, i32 0, i32 3
  store i32 0, ptr %35, align 8, !tbaa !22
  br label %36

36:                                               ; preds = %33, %22
  %37 = load ptr, ptr %7, align 8, !tbaa !6
  %38 = load ptr, ptr %7, align 8, !tbaa !6
  %39 = load i32, ptr %9, align 4, !tbaa !13
  %40 = load ptr, ptr %12, align 8, !tbaa !6
  %41 = icmp ne ptr %40, null
  br i1 %41, label %42, label %44

42:                                               ; preds = %36
  %43 = load ptr, ptr %12, align 8, !tbaa !6
  br label %46

44:                                               ; preds = %36
  %45 = load ptr, ptr %10, align 8, !tbaa !6
  br label %46

46:                                               ; preds = %44, %42
  %47 = phi ptr [ %43, %42 ], [ %45, %44 ]
  %48 = call i32 @BN_mod_lshift_quick(ptr noundef %37, ptr noundef %38, i32 noundef %39, ptr noundef %47)
  store i32 %48, ptr %13, align 4, !tbaa !13
  %49 = load ptr, ptr %12, align 8, !tbaa !6
  call void @BN_free(ptr noundef %49)
  %50 = load i32, ptr %13, align 4, !tbaa !13
  store i32 %50, ptr %6, align 4
  store i32 1, ptr %14, align 4
  br label %51

51:                                               ; preds = %46, %32, %21
  call void @llvm.lifetime.end.p0(i64 4, ptr %13) #4
  call void @llvm.lifetime.end.p0(i64 8, ptr %12) #4
  %52 = load i32, ptr %6, align 4
  ret i32 %52
}