; Function Attrs: nounwind uwtable
define hidden range(i32 0, 2) i32 @BN_mod_lshift(ptr noundef %0, ptr noundef %1, i32 noundef %2, ptr noundef %3, ptr noundef %4) local_unnamed_addr #0 {
  %6 = tail call i32 @BN_div(ptr noundef null, ptr noundef %0, ptr noundef %1, ptr noundef %3, ptr noundef %4)
  %.not.i = icmp eq i32 %6, 0
  br i1 %.not.i, label %BN_nnmod.exit.thread, label %7

7:                                                ; preds = %5
  %8 = getelementptr inbounds nuw i8, ptr %0, i64 16
  %9 = load i32, ptr %8, align 8, !tbaa !17
  %.not9.i = icmp eq i32 %9, 0
  br i1 %.not9.i, label %BN_nnmod.exit.thread22, label %BN_nnmod.exit

BN_nnmod.exit:                                    ; preds = %7
  %10 = getelementptr inbounds nuw i8, ptr %3, i64 16
  %11 = load i32, ptr %10, align 8, !tbaa !17
  %.not10.i = icmp eq i32 %11, 0
  %12 = select i1 %.not10.i, ptr @BN_add, ptr @BN_sub
  %13 = tail call i32 %12(ptr noundef nonnull %0, ptr noundef nonnull %0, ptr noundef %3) #6, !callees !22
  %.not = icmp eq i32 %13, 0
  br i1 %.not, label %BN_nnmod.exit.thread, label %BN_nnmod.exit.thread22

BN_nnmod.exit.thread22:                           ; preds = %7, %BN_nnmod.exit
  %14 = getelementptr inbounds nuw i8, ptr %3, i64 16
  %15 = load i32, ptr %14, align 8, !tbaa !17
  %.not18 = icmp eq i32 %15, 0
  br i1 %.not18, label %21, label %16

16:                                               ; preds = %BN_nnmod.exit.thread22
  %17 = tail call ptr @BN_dup(ptr noundef nonnull %3) #6
  %18 = icmp eq ptr %17, null
  br i1 %18, label %BN_nnmod.exit.thread, label %19

19:                                               ; preds = %16
  %20 = getelementptr inbounds nuw i8, ptr %17, i64 16
  store i32 0, ptr %20, align 8, !tbaa !17
  br label %21

21:                                               ; preds = %19, %BN_nnmod.exit.thread22
  %.016 = phi ptr [ %17, %19 ], [ null, %BN_nnmod.exit.thread22 ]
  %.not19 = icmp eq ptr %.016, null
  %22 = select i1 %.not19, ptr %3, ptr %.016
  %23 = tail call i32 @BN_mod_lshift_quick(ptr noundef nonnull %0, ptr noundef nonnull %0, i32 noundef %2, ptr noundef %22)
  tail call void @BN_free(ptr noundef %.016) #6
  br label %BN_nnmod.exit.thread

BN_nnmod.exit.thread:                             ; preds = %5, %16, %BN_nnmod.exit, %21
  %.0 = phi i32 [ %23, %21 ], [ 0, %BN_nnmod.exit ], [ 0, %16 ], [ 0, %5 ]
  ret i32 %.0
}